target datalayout = "e-m:e-p270:32:32-p271:32:32-p272:64:64-i64:64-i128:128-f80:128-n8:16:32:64-S128"
target triple = "x86_64-pc-linux-gnu"

%"class.llvm::DbgMarker" = type { ptr, %"class.llvm::simple_ilist.43" }
%"class.llvm::simple_ilist.43" = type { %"class.llvm::ilist_sentinel.45" }
%"class.llvm::ilist_sentinel.45" = type { %"class.llvm::ilist_node_impl" }
%"class.llvm::ilist_node_impl" = type { %"class.llvm::ilist_node_base" }
%"class.llvm::ilist_node_base" = type { %"class.llvm::ilist_detail::node_base_prevnext" }
%"class.llvm::ilist_detail::node_base_prevnext" = type { ptr, ptr }
%"class.llvm::TypedTrackingMDRef" = type { %"class.llvm::TrackingMDRef" }
%"class.llvm::TrackingMDRef" = type { ptr }
%"class.llvm::DebugLoc" = type { %"class.llvm::TypedTrackingMDRef" }
%"class.llvm::ilist_node" = type { %"class.llvm::ilist_node_impl" }
%"class.llvm::DbgRecord" = type <{ %"class.llvm::ilist_node", ptr, %"class.llvm::DebugLoc", i8, [7 x i8] }>
%"class.llvm::ilist_iterator" = type { ptr }

; Function Attrs: mustprogress nounwind uwtable
define linkonce_odr hidden void @_ZN4llvm12ilist_detail18node_base_prevnextINS_15ilist_node_baseILb0EvEELb0EE7setPrevEPS3_(ptr noundef nonnull align 8 dereferenceable(16) %0, ptr noundef %1) #0 comdat align 2 {
  %3 = alloca ptr, align 8
  %4 = alloca ptr, align 8
  store ptr %0, ptr %3, align 8
  store ptr %1, ptr %4, align 8
  %5 = load ptr, ptr %3, align 8
  %6 = load ptr, ptr %4, align 8
  %7 = getelementptr inbounds nuw %"class.llvm::ilist_detail::node_base_prevnext", ptr %5, i32 0, i32 0
  store ptr %6, ptr %7, align 8
  ret void
}

; Function Attrs: mustprogress nounwind uwtable
define linkonce_odr hidden void @_ZN4llvm12ilist_detail18node_base_prevnextINS_15ilist_node_baseILb0EvEELb0EE7setNextEPS3_(ptr noundef nonnull align 8 dereferenceable(16) %0, ptr noundef %1) #0 comdat align 2 {
  %3 = alloca ptr, align 8
  %4 = alloca ptr, align 8
  store ptr %0, ptr %3, align 8
  store ptr %1, ptr %4, align 8
  %5 = load ptr, ptr %3, align 8
  %6 = load ptr, ptr %4, align 8
  %7 = getelementptr inbounds nuw %"class.llvm::ilist_detail::node_base_prevnext", ptr %5, i32 0, i32 1
  store ptr %6, ptr %7, align 8
  ret void
}

; Function Attrs: mustprogress nounwind uwtable
define linkonce_odr hidden noundef ptr @_ZNK4llvm12ilist_detail18node_base_prevnextINS_15ilist_node_baseILb0EvEELb0EE7getPrevEv(ptr noundef nonnull align 8 dereferenceable(16) %0) #0 comdat align 2 {
  %2 = alloca ptr, align 8
  store ptr %0, ptr %2, align 8
  %3 = load ptr, ptr %2, align 8
  %4 = getelementptr inbounds nuw %"class.llvm::ilist_detail::node_base_prevnext", ptr %3, i32 0, i32 0
  %5 = load ptr, ptr %4, align 8
  ret ptr %5
}

; Function Attrs: mustprogress nounwind uwtable
define linkonce_odr hidden noundef ptr @_ZNK4llvm12ilist_detail18node_base_prevnextINS_15ilist_node_baseILb0EvEELb0EE7getNextEv(ptr noundef nonnull align 8 dereferenceable(16) %0) #0 comdat align 2 {
  %2 = alloca ptr, align 8
  store ptr %0, ptr %2, align 8
  %3 = load ptr, ptr %2, align 8
  %4 = getelementptr inbounds nuw %"class.llvm::ilist_detail::node_base_prevnext", ptr %3, i32 0, i32 1
  %5 = load ptr, ptr %4, align 8
  ret ptr %5
}

; Function Attrs: mustprogress nounwind uwtable
define linkonce_odr hidden void @_ZN4llvm10ilist_baseILb0EvE16insertBeforeImplERNS_15ilist_node_baseILb0EvEES4_(ptr noundef nonnull align 8 dereferenceable(16) %0, ptr noundef nonnull align 8 dereferenceable(16) %1) #0 comdat align 2 {
  %3 = alloca ptr, align 8
  %4 = alloca ptr, align 8
  %5 = alloca ptr, align 8
  store ptr %0, ptr %3, align 8
  store ptr %1, ptr %4, align 8
  %6 = load ptr, ptr %3, align 8
  %7 = call noundef ptr @_ZNK4llvm12ilist_detail18node_base_prevnextINS_15ilist_node_baseILb0EvEELb0EE7getPrevEv(ptr noundef nonnull align 8 dereferenceable(16) %6)
  store ptr %7, ptr %5, align 8
  %8 = load ptr, ptr %4, align 8
  %9 = load ptr, ptr %3, align 8
  call void @_ZN4llvm12ilist_detail18node_base_prevnextINS_15ilist_node_baseILb0EvEELb0EE7setNextEPS3_(ptr noundef nonnull align 8 dereferenceable(16) %8, ptr noundef %9)
  %10 = load ptr, ptr %4, align 8
  %11 = load ptr, ptr %5, align 8
  call void @_ZN4llvm12ilist_detail18node_base_prevnextINS_15ilist_node_baseILb0EvEELb0EE7setPrevEPS3_(ptr noundef nonnull align 8 dereferenceable(16) %10, ptr noundef %11)
  %12 = load ptr, ptr %5, align 8
  %13 = load ptr, ptr %4, align 8
  call void @_ZN4llvm12ilist_detail18node_base_prevnextINS_15ilist_node_baseILb0EvEELb0EE7setNextEPS3_(ptr noundef nonnull align 8 dereferenceable(16) %12, ptr noundef %13)
  %14 = load ptr, ptr %3, align 8
  %15 = load ptr, ptr %4, align 8
  call void @_ZN4llvm12ilist_detail18node_base_prevnextINS_15ilist_node_baseILb0EvEELb0EE7setPrevEPS3_(ptr noundef nonnull align 8 dereferenceable(16) %14, ptr noundef %15)
  ret void
}

; Function Attrs: mustprogress nounwind uwtable
define linkonce_odr hidden noundef ptr @_ZN4llvm12ilist_detail10NodeAccess10getNodePtrINS0_12node_optionsINS_9DbgRecordELb0ELb0EvLb0EvEEEEPNS_15ilist_node_implIT_EENS7_7pointerE(ptr noundef %0) #0 comdat align 2 {
  %2 = alloca ptr, align 8
  store ptr %0, ptr %2, align 8
  %3 = load ptr, ptr %2, align 8
  ret ptr %3
}

; Function Attrs: mustprogress nounwind uwtable
define linkonce_odr hidden noundef ptr @_ZN4llvm15ilist_node_implINS_12ilist_detail12node_optionsINS_9DbgRecordELb0ELb0EvLb0EvEEE7getNextEv(ptr noundef nonnull align 8 dereferenceable(16) %0) #0 comdat align 2 {
  %2 = alloca ptr, align 8
  store ptr %0, ptr %2, align 8
  %3 = load ptr, ptr %2, align 8
  %4 = call noundef ptr @_ZNK4llvm12ilist_detail18node_base_prevnextINS_15ilist_node_baseILb0EvEELb0EE7getNextEv(ptr noundef nonnull align 8 dereferenceable(16) %3)
  ret ptr %4
}

; Function Attrs: mustprogress nounwind uwtable
define linkonce_odr hidden void @_ZN4llvm14ilist_iteratorINS_12ilist_detail12node_optionsINS_9DbgRecordELb0ELb0EvLb0EvEELb0ELb0EEC2EPS3_(ptr noundef nonnull align 8 dereferenceable(8) %0, ptr noundef %1) unnamed_addr #0 comdat align 2 {
  %3 = alloca ptr, align 8
  %4 = alloca ptr, align 8
  store ptr %0, ptr %3, align 8
  store ptr %1, ptr %4, align 8
  %5 = load ptr, ptr %3, align 8
  %6 = getelementptr inbounds nuw %"class.llvm::ilist_iterator", ptr %5, i32 0, i32 0
  %7 = load ptr, ptr %4, align 8
  %8 = call noundef ptr @_ZN4llvm12ilist_detail18SpecificNodeAccessINS0_12node_optionsINS_9DbgRecordELb0ELb0EvLb0EvEEE10getNodePtrEPS3_(ptr noundef %7)
  store ptr %8, ptr %6, align 8
  ret void
}

; Function Attrs: mustprogress nounwind uwtable
define linkonce_odr hidden void @_ZN4llvm10ilist_baseILb0EvE12insertBeforeINS_15ilist_node_implINS_12ilist_detail12node_optionsINS_9DbgRecordELb0ELb0EvLb0EvEEEEEEvRT_SA_(ptr noundef nonnull align 8 dereferenceable(16) %0, ptr noundef nonnull align 8 dereferenceable(16) %1) #0 comdat align 2 {
  %3 = alloca ptr, align 8
  %4 = alloca ptr, align 8
  store ptr %0, ptr %3, align 8
  store ptr %1, ptr %4, align 8
  %5 = load ptr, ptr %3, align 8
  %6 = load ptr, ptr %4, align 8
  call void @_ZN4llvm10ilist_baseILb0EvE16insertBeforeImplERNS_15ilist_node_baseILb0EvEES4_(ptr noundef nonnull align 8 dereferenceable(16) %5, ptr noundef nonnull align 8 dereferenceable(16) %6)
  ret void
}

; Function Attrs: mustprogress nounwind uwtable
define linkonce_odr hidden noundef ptr @_ZN4llvm12ilist_detail18SpecificNodeAccessINS0_12node_optionsINS_9DbgRecordELb0ELb0EvLb0EvEEE10getNodePtrEPS3_(ptr noundef %0) #0 comdat align 2 {
  %2 = alloca ptr, align 8
  store ptr %0, ptr %2, align 8
  %3 = load ptr, ptr %2, align 8
  %4 = call noundef ptr @_ZN4llvm12ilist_detail10NodeAccess10getNodePtrINS0_12node_optionsINS_9DbgRecordELb0ELb0EvLb0EvEEEEPNS_15ilist_node_implIT_EENS7_7pointerE(ptr noundef %3)
  ret ptr %4
}

; Function Attrs: mustprogress nounwind uwtable
define linkonce_odr hidden noundef ptr @_ZNK4llvm14ilist_iteratorINS_12ilist_detail12node_optionsINS_9DbgRecordELb0ELb0EvLb0EvEELb0ELb0EE10getNodePtrEv(ptr noundef nonnull align 8 dereferenceable(8) %0) #0 comdat align 2 {
  %2 = alloca ptr, align 8
  store ptr %0, ptr %2, align 8
  %3 = load ptr, ptr %2, align 8
  %4 = getelementptr inbounds nuw %"class.llvm::ilist_iterator", ptr %3, i32 0, i32 0
  %5 = load ptr, ptr %4, align 8
  ret ptr %5
}

; Function Attrs: mustprogress nounwind uwtable
define linkonce_odr hidden noundef nonnull align 8 dereferenceable(8) ptr @_ZN4llvm14ilist_iteratorINS_12ilist_detail12node_optionsINS_9DbgRecordELb0ELb0EvLb0EvEELb0ELb0EEppEv(ptr noundef nonnull align 8 dereferenceable(8) %0) #0 comdat align 2 {
  %2 = alloca ptr, align 8
  store ptr %0, ptr %2, align 8
  %3 = load ptr, ptr %2, align 8
  %4 = getelementptr inbounds nuw %"class.llvm::ilist_iterator", ptr %3, i32 0, i32 0
  %5 = load ptr, ptr %4, align 8
  %6 = call noundef ptr @_ZN4llvm15ilist_node_implINS_12ilist_detail12node_optionsINS_9DbgRecordELb0ELb0EvLb0EvEEE7getNextEv(ptr noundef nonnull align 8 dereferenceable(16) %5)
  %7 = getelementptr inbounds nuw %"class.llvm::ilist_iterator", ptr %3, i32 0, i32 0
  store ptr %6, ptr %7, align 8
  ret ptr %3
}

; Function Attrs: mustprogress nounwind uwtable
define linkonce_odr hidden void @_ZN4llvm14ilist_iteratorINS_12ilist_detail12node_optionsINS_9DbgRecordELb0ELb0EvLb0EvEELb0ELb0EEC2ERNS_15ilist_node_implIS4_EE(ptr noundef nonnull align 8 dereferenceable(8) %0, ptr noundef nonnull align 8 dereferenceable(16) %1) unnamed_addr #0 comdat align 2 {
  %3 = alloca ptr, align 8
  %4 = alloca ptr, align 8
  store ptr %0, ptr %3, align 8
  store ptr %1, ptr %4, align 8
  %5 = load ptr, ptr %3, align 8
  %6 = getelementptr inbounds nuw %"class.llvm::ilist_iterator", ptr %5, i32 0, i32 0
  %7 = load ptr, ptr %4, align 8
  store ptr %7, ptr %6, align 8
  ret void
}

; Function Attrs: mustprogress nounwind uwtable
define linkonce_odr hidden void @_ZN4llvm9DbgRecord9setMarkerEPNS_9DbgMarkerE(ptr noundef nonnull align 8 dereferenceable(33) %0, ptr noundef %1) #0 comdat align 2 {
  %3 = alloca ptr, align 8
  %4 = alloca ptr, align 8
  store ptr %0, ptr %3, align 8
  store ptr %1, ptr %4, align 8
  %5 = load ptr, ptr %3, align 8
  %6 = load ptr, ptr %4, align 8
  %7 = getelementptr inbounds nuw %"class.llvm::DbgRecord", ptr %5, i32 0, i32 1
  store ptr %6, ptr %7, align 8
  ret void
}

; Function Attrs: mustprogress nounwind uwtable
define linkonce_odr hidden ptr @_ZN4llvm12simple_ilistINS_9DbgRecordEJEE6insertENS_14ilist_iteratorINS_12ilist_detail12node_optionsIS1_Lb0ELb0EvLb0EvEELb0ELb0EEERS1_(ptr noundef nonnull align 8 dereferenceable(16) %0, ptr %1, ptr noundef nonnull align 8 dereferenceable(33) %2) #0 comdat align 2 {
  %4 = alloca %"class.llvm::ilist_iterator", align 8
  %5 = alloca %"class.llvm::ilist_iterator", align 8
  %6 = alloca ptr, align 8
  %7 = alloca ptr, align 8
  %8 = getelementptr inbounds nuw %"class.llvm::ilist_iterator", ptr %5, i32 0, i32 0
  store ptr %1, ptr %8, align 8
  store ptr %0, ptr %6, align 8
  store ptr %2, ptr %7, align 8
  %9 = call noundef ptr @_ZNK4llvm14ilist_iteratorINS_12ilist_detail12node_optionsINS_9DbgRecordELb0ELb0EvLb0EvEELb0ELb0EE10getNodePtrEv(ptr noundef nonnull align 8 dereferenceable(8) %5)
  %10 = load ptr, ptr %7, align 8
  %11 = call noundef ptr @_ZN4llvm12ilist_detail18SpecificNodeAccessINS0_12node_optionsINS_9DbgRecordELb0ELb0EvLb0EvEEE10getNodePtrEPS3_(ptr noundef %10)
  call void @_ZN4llvm10ilist_baseILb0EvE12insertBeforeINS_15ilist_node_implINS_12ilist_detail12node_optionsINS_9DbgRecordELb0ELb0EvLb0EvEEEEEEvRT_SA_(ptr noundef nonnull align 8 dereferenceable(16) %9, ptr noundef nonnull align 8 dereferenceable(16) %11)
  %12 = load ptr, ptr %7, align 8
  call void @_ZN4llvm14ilist_iteratorINS_12ilist_detail12node_optionsINS_9DbgRecordELb0ELb0EvLb0EvEELb0ELb0EEC2EPS3_(ptr noundef nonnull align 8 dereferenceable(8) %4, ptr noundef %12)
  %13 = getelementptr inbounds nuw %"class.llvm::ilist_iterator", ptr %4, i32 0, i32 0
  %14 = load ptr, ptr %13, align 8
  ret ptr %14
}

; Function Attrs: mustprogress nounwind uwtable
define linkonce_odr hidden ptr @_ZN4llvm12simple_ilistINS_9DbgRecordEJEE3endEv(ptr noundef nonnull align 8 dereferenceable(16) %0) #0 comdat align 2 {
  %2 = alloca %"class.llvm::ilist_iterator", align 8
  %3 = alloca ptr, align 8
  store ptr %0, ptr %3, align 8
  %4 = load ptr, ptr %3, align 8
  %5 = getelementptr inbounds nuw %"class.llvm::simple_ilist.43", ptr %4, i32 0, i32 0
  call void @_ZN4llvm14ilist_iteratorINS_12ilist_detail12node_optionsINS_9DbgRecordELb0ELb0EvLb0EvEELb0ELb0EEC2ERNS_15ilist_node_implIS4_EE(ptr noundef nonnull align 8 dereferenceable(8) %2, ptr noundef nonnull align 8 dereferenceable(16) %5)
  %6 = getelementptr inbounds nuw %"class.llvm::ilist_iterator", ptr %2, i32 0, i32 0
  %7 = load ptr, ptr %6, align 8
  ret ptr %7
}

; Function Attrs: mustprogress nounwind uwtable
define linkonce_odr hidden ptr @_ZN4llvm12simple_ilistINS_9DbgRecordEJEE5beginEv(ptr noundef nonnull align 8 dereferenceable(16) %0) #0 comdat align 2 {
  %2 = alloca %"class.llvm::ilist_iterator", align 8
  %3 = alloca ptr, align 8
  %4 = alloca %"class.llvm::ilist_iterator", align 8
  store ptr %0, ptr %3, align 8
  %5 = load ptr, ptr %3, align 8
  %6 = getelementptr inbounds nuw %"class.llvm::simple_ilist.43", ptr %5, i32 0, i32 0
  call void @_ZN4llvm14ilist_iteratorINS_12ilist_detail12node_optionsINS_9DbgRecordELb0ELb0EvLb0EvEELb0ELb0EEC2ERNS_15ilist_node_implIS4_EE(ptr noundef nonnull align 8 dereferenceable(8) %4, ptr noundef nonnull align 8 dereferenceable(16) %6)
  %7 = call noundef nonnull align 8 dereferenceable(8) ptr @_ZN4llvm14ilist_iteratorINS_12ilist_detail12node_optionsINS_9DbgRecordELb0ELb0EvLb0EvEELb0ELb0EEppEv(ptr noundef nonnull align 8 dereferenceable(8) %4)
  call void @llvm.memcpy.p0.p0.i64(ptr align 8 %2, ptr align 8 %7, i64 8, i1 false)
  %8 = getelementptr inbounds nuw %"class.llvm::ilist_iterator", ptr %2, i32 0, i32 0
  %9 = load ptr, ptr %8, align 8
  ret ptr %9
}

; Function Attrs: mustprogress nounwind uwtable
define dso_local void @_ZN4llvm9DbgMarker15insertDbgRecordEPNS_9DbgRecordEb(ptr noundef nonnull align 8 dereferenceable(24) %0, ptr noundef %1, i1 noundef zeroext %2) #0 align 2 {
  %4 = alloca ptr, align 8
  %5 = alloca ptr, align 8
  %6 = alloca i8, align 1
  %7 = alloca %"class.llvm::ilist_iterator", align 8
  %8 = alloca %"class.llvm::ilist_iterator", align 8
  %9 = alloca %"class.llvm::ilist_iterator", align 8
  store ptr %0, ptr %4, align 8
  store ptr %1, ptr %5, align 8
  %10 = zext i1 %2 to i8
  store i8 %10, ptr %6, align 1
  %11 = load ptr, ptr %4, align 8
  %12 = load i8, ptr %6, align 1
  %13 = trunc i8 %12 to i1
  br i1 %13, label %14, label %18

14:                                               ; preds = %3
  %15 = getelementptr inbounds nuw %"class.llvm::DbgMarker", ptr %11, i32 0, i32 1
  %16 = call ptr @_ZN4llvm12simple_ilistINS_9DbgRecordEJEE5beginEv(ptr noundef nonnull align 8 dereferenceable(16) %15)
  %17 = getelementptr inbounds nuw %"class.llvm::ilist_iterator", ptr %7, i32 0, i32 0
  store ptr %16, ptr %17, align 8
  br label %22

18:                                               ; preds = %3
  %19 = getelementptr inbounds nuw %"class.llvm::DbgMarker", ptr %11, i32 0, i32 1
  %20 = call ptr @_ZN4llvm12simple_ilistINS_9DbgRecordEJEE3endEv(ptr noundef nonnull align 8 dereferenceable(16) %19)
  %21 = getelementptr inbounds nuw %"class.llvm::ilist_iterator", ptr %7, i32 0, i32 0
  store ptr %20, ptr %21, align 8
  br label %22

22:                                               ; preds = %18, %14
  %23 = getelementptr inbounds nuw %"class.llvm::DbgMarker", ptr %11, i32 0, i32 1
  call void @llvm.memcpy.p0.p0.i64(ptr align 8 %8, ptr align 8 %7, i64 8, i1 false)
  %24 = load ptr, ptr %5, align 8
  %25 = getelementptr inbounds nuw %"class.llvm::ilist_iterator", ptr %8, i32 0, i32 0
  %26 = load ptr, ptr %25, align 8
  %27 = call ptr @_ZN4llvm12simple_ilistINS_9DbgRecordEJEE6insertENS_14ilist_iteratorINS_12ilist_detail12node_optionsIS1_Lb0ELb0EvLb0EvEELb0ELb0EEERS1_(ptr noundef nonnull align 8 dereferenceable(16) %23, ptr %26, ptr noundef nonnull align 8 dereferenceable(33) %24)
  %28 = getelementptr inbounds nuw %"class.llvm::ilist_iterator", ptr %9, i32 0, i32 0
  store ptr %27, ptr %28, align 8
  %29 = load ptr, ptr %5, align 8
  call void @_ZN4llvm9DbgRecord9setMarkerEPNS_9DbgMarkerE(ptr noundef nonnull align 8 dereferenceable(33) %29, ptr noundef %11)
  ret void
}