; Function Attrs: mustprogress nofree norecurse nosync nounwind willreturn memory(readwrite, inaccessiblemem: none) uwtable
define dso_local void @_ZN4llvm9DbgMarker15insertDbgRecordEPNS_9DbgRecordEb(ptr noundef nonnull align 8 dereferenceable(24) %0, ptr noundef %1, i1 noundef zeroext %2) local_unnamed_addr #9 align 2 {
  %4 = getelementptr inbounds i8, ptr %0, i64 16
  %5 = load ptr, ptr %4, align 8
  %6 = getelementptr inbounds nuw i8, ptr %0, i64 8
  %.sroa.02.0 = select i1 %2, ptr %5, ptr %6
  %7 = load ptr, ptr %.sroa.02.0, align 8
  %8 = getelementptr inbounds nuw i8, ptr %1, i64 8
  store ptr %.sroa.02.0, ptr %8, align 8
  store ptr %7, ptr %1, align 8
  %9 = getelementptr inbounds nuw i8, ptr %7, i64 8
  store ptr %1, ptr %9, align 8
  store ptr %1, ptr %.sroa.02.0, align 8
  %10 = getelementptr inbounds nuw i8, ptr %1, i64 16
  store ptr %0, ptr %10, align 8
  ret void
}